target datalayout = "e-m:e-p270:32:32-p271:32:32-p272:64:64-i64:64-i128:128-f80:128-n8:16:32:64-S128"
target triple = "x86_64-pc-linux-gnu"

%struct.ident_t = type { i32, i32, i32, i32, ptr }
%"struct.OpenSubdiv::v3_6_0::Osd::BufferDescriptor" = type { i32, i32, i32 }
%"struct.OpenSubdiv::v3_6_0::Osd::BufferAdapter" = type { ptr, i32, i32 }

@2 = private unnamed_addr constant %struct.ident_t { i32 0, i32 2, i32 0, i32 22, ptr @0 }, align 8

; Function Attrs: mustprogress nounwind uwtable
define linkonce_odr void @_ZN10OpenSubdiv6v3_6_03Osd13BufferAdapterIKfEC2EPS3_ii(ptr noundef nonnull align 8 dereferenceable(16) %0, ptr noundef %1, i32 noundef %2, i32 noundef %3) unnamed_addr #5 comdat align 2 {
  %5 = alloca ptr, align 8
  %6 = alloca ptr, align 8
  %7 = alloca i32, align 4
  %8 = alloca i32, align 4
  store ptr %0, ptr %5, align 8
  store ptr %1, ptr %6, align 8
  store i32 %2, ptr %7, align 4
  store i32 %3, ptr %8, align 4
  %9 = load ptr, ptr %5, align 8
  %10 = getelementptr inbounds nuw %"struct.OpenSubdiv::v3_6_0::Osd::BufferAdapter", ptr %9, i32 0, i32 0
  %11 = load ptr, ptr %6, align 8
  store ptr %11, ptr %10, align 8
  %12 = getelementptr inbounds nuw %"struct.OpenSubdiv::v3_6_0::Osd::BufferAdapter", ptr %9, i32 0, i32 1
  %13 = load i32, ptr %7, align 4
  store i32 %13, ptr %12, align 8
  %14 = getelementptr inbounds nuw %"struct.OpenSubdiv::v3_6_0::Osd::BufferAdapter", ptr %9, i32 0, i32 2
  %15 = load i32, ptr %8, align 4
  store i32 %15, ptr %14, align 4
  ret void
}

; Function Attrs: mustprogress uwtable
define noundef zeroext i1 @_ZN10OpenSubdiv6v3_6_03Osd12OmpEvaluator11EvalPatchesEPKfRKNS1_16BufferDescriptorEPfS7_S8_S7_S8_S7_S8_S7_S8_S7_S8_S7_iPKNS1_10PatchCoordEPKNS1_10PatchArrayEPKiPKNS1_10PatchParamE(ptr noundef %0, ptr noundef nonnull align 4 dereferenceable(12) %1, ptr noundef %2, ptr noundef nonnull align 4 dereferenceable(12) %3, ptr noundef %4, ptr noundef nonnull align 4 dereferenceable(12) %5, ptr noundef %6, ptr noundef nonnull align 4 dereferenceable(12) %7, ptr noundef %8, ptr noundef nonnull align 4 dereferenceable(12) %9, ptr noundef %10, ptr noundef nonnull align 4 dereferenceable(12) %11, ptr noundef %12, ptr noundef nonnull align 4 dereferenceable(12) %13, i32 noundef %14, ptr noundef %15, ptr noundef %16, ptr noundef %17, ptr noundef %18) #4 align 2 {
  %20 = alloca ptr, align 8
  %21 = alloca ptr, align 8
  %22 = alloca ptr, align 8
  %23 = alloca ptr, align 8
  %24 = alloca ptr, align 8
  %25 = alloca ptr, align 8
  %26 = alloca ptr, align 8
  %27 = alloca ptr, align 8
  %28 = alloca ptr, align 8
  %29 = alloca ptr, align 8
  %30 = alloca ptr, align 8
  %31 = alloca ptr, align 8
  %32 = alloca ptr, align 8
  %33 = alloca ptr, align 8
  %34 = alloca i32, align 4
  %35 = alloca ptr, align 8
  %36 = alloca ptr, align 8
  %37 = alloca ptr, align 8
  %38 = alloca ptr, align 8
  %39 = alloca %"struct.OpenSubdiv::v3_6_0::Osd::BufferAdapter", align 8
  store ptr %0, ptr %20, align 8
  store ptr %1, ptr %21, align 8
  store ptr %2, ptr %22, align 8
  store ptr %3, ptr %23, align 8
  store ptr %4, ptr %24, align 8
  store ptr %5, ptr %25, align 8
  store ptr %6, ptr %26, align 8
  store ptr %7, ptr %27, align 8
  store ptr %8, ptr %28, align 8
  store ptr %9, ptr %29, align 8
  store ptr %10, ptr %30, align 8
  store ptr %11, ptr %31, align 8
  store ptr %12, ptr %32, align 8
  store ptr %13, ptr %33, align 8
  store i32 %14, ptr %34, align 4
  store ptr %15, ptr %35, align 8
  store ptr %16, ptr %36, align 8
  store ptr %17, ptr %37, align 8
  store ptr %18, ptr %38, align 8
  %40 = load ptr, ptr %21, align 8
  %41 = getelementptr inbounds nuw %"struct.OpenSubdiv::v3_6_0::Osd::BufferDescriptor", ptr %40, i32 0, i32 0
  %42 = load i32, ptr %41, align 4
  %43 = load ptr, ptr %20, align 8
  %44 = sext i32 %42 to i64
  %45 = getelementptr inbounds float, ptr %43, i64 %44
  store ptr %45, ptr %20, align 8
  %46 = load ptr, ptr %22, align 8
  %47 = icmp ne ptr %46, null
  br i1 %47, label %48, label %55

48:                                               ; preds = %19
  %49 = load ptr, ptr %23, align 8
  %50 = getelementptr inbounds nuw %"struct.OpenSubdiv::v3_6_0::Osd::BufferDescriptor", ptr %49, i32 0, i32 0
  %51 = load i32, ptr %50, align 4
  %52 = load ptr, ptr %22, align 8
  %53 = sext i32 %51 to i64
  %54 = getelementptr inbounds float, ptr %52, i64 %53
  store ptr %54, ptr %22, align 8
  br label %55

55:                                               ; preds = %48, %19
  %56 = load ptr, ptr %24, align 8
  %57 = icmp ne ptr %56, null
  br i1 %57, label %58, label %65

58:                                               ; preds = %55
  %59 = load ptr, ptr %25, align 8
  %60 = getelementptr inbounds nuw %"struct.OpenSubdiv::v3_6_0::Osd::BufferDescriptor", ptr %59, i32 0, i32 0
  %61 = load i32, ptr %60, align 4
  %62 = load ptr, ptr %24, align 8
  %63 = sext i32 %61 to i64
  %64 = getelementptr inbounds float, ptr %62, i64 %63
  store ptr %64, ptr %24, align 8
  br label %65

65:                                               ; preds = %58, %55
  %66 = load ptr, ptr %26, align 8
  %67 = icmp ne ptr %66, null
  br i1 %67, label %68, label %75

68:                                               ; preds = %65
  %69 = load ptr, ptr %27, align 8
  %70 = getelementptr inbounds nuw %"struct.OpenSubdiv::v3_6_0::Osd::BufferDescriptor", ptr %69, i32 0, i32 0
  %71 = load i32, ptr %70, align 4
  %72 = load ptr, ptr %26, align 8
  %73 = sext i32 %71 to i64
  %74 = getelementptr inbounds float, ptr %72, i64 %73
  store ptr %74, ptr %26, align 8
  br label %75

75:                                               ; preds = %68, %65
  %76 = load ptr, ptr %28, align 8
  %77 = icmp ne ptr %76, null
  br i1 %77, label %78, label %85

78:                                               ; preds = %75
  %79 = load ptr, ptr %29, align 8
  %80 = getelementptr inbounds nuw %"struct.OpenSubdiv::v3_6_0::Osd::BufferDescriptor", ptr %79, i32 0, i32 0
  %81 = load i32, ptr %80, align 4
  %82 = load ptr, ptr %28, align 8
  %83 = sext i32 %81 to i64
  %84 = getelementptr inbounds float, ptr %82, i64 %83
  store ptr %84, ptr %28, align 8
  br label %85

85:                                               ; preds = %78, %75
  %86 = load ptr, ptr %30, align 8
  %87 = icmp ne ptr %86, null
  br i1 %87, label %88, label %95

88:                                               ; preds = %85
  %89 = load ptr, ptr %31, align 8
  %90 = getelementptr inbounds nuw %"struct.OpenSubdiv::v3_6_0::Osd::BufferDescriptor", ptr %89, i32 0, i32 0
  %91 = load i32, ptr %90, align 4
  %92 = load ptr, ptr %30, align 8
  %93 = sext i32 %91 to i64
  %94 = getelementptr inbounds float, ptr %92, i64 %93
  store ptr %94, ptr %30, align 8
  br label %95

95:                                               ; preds = %88, %85
  %96 = load ptr, ptr %32, align 8
  %97 = icmp ne ptr %96, null
  br i1 %97, label %98, label %105

98:                                               ; preds = %95
  %99 = load ptr, ptr %33, align 8
  %100 = getelementptr inbounds nuw %"struct.OpenSubdiv::v3_6_0::Osd::BufferDescriptor", ptr %99, i32 0, i32 0
  %101 = load i32, ptr %100, align 4
  %102 = load ptr, ptr %32, align 8
  %103 = sext i32 %101 to i64
  %104 = getelementptr inbounds float, ptr %102, i64 %103
  store ptr %104, ptr %32, align 8
  br label %105

105:                                              ; preds = %98, %95
  %106 = load ptr, ptr %20, align 8
  %107 = load ptr, ptr %21, align 8
  %108 = getelementptr inbounds nuw %"struct.OpenSubdiv::v3_6_0::Osd::BufferDescriptor", ptr %107, i32 0, i32 1
  %109 = load i32, ptr %108, align 4
  %110 = load ptr, ptr %21, align 8
  %111 = getelementptr inbounds nuw %"struct.OpenSubdiv::v3_6_0::Osd::BufferDescriptor", ptr %110, i32 0, i32 2
  %112 = load i32, ptr %111, align 4
  call void @_ZN10OpenSubdiv6v3_6_03Osd13BufferAdapterIKfEC2EPS3_ii(ptr noundef nonnull align 8 dereferenceable(16) %39, ptr noundef %106, i32 noundef %109, i32 noundef %112)
  %113 = load ptr, ptr %23, align 8
  %114 = load ptr, ptr %25, align 8
  %115 = load ptr, ptr %27, align 8
  %116 = load ptr, ptr %29, align 8
  %117 = load ptr, ptr %31, align 8
  %118 = load ptr, ptr %33, align 8
  call void (ptr, i32, ptr, ...) @__kmpc_fork_call(ptr @2, i32 18, ptr @_ZN10OpenSubdiv6v3_6_03Osd12OmpEvaluator11EvalPatchesEPKfRKNS1_16BufferDescriptorEPfS7_S8_S7_S8_S7_S8_S7_S8_S7_S8_S7_iPKNS1_10PatchCoordEPKNS1_10PatchArrayEPKiPKNS1_10PatchParamE.omp_outlined, ptr %34, ptr %22, ptr %113, ptr %24, ptr %114, ptr %26, ptr %115, ptr %28, ptr %116, ptr %30, ptr %117, ptr %32, ptr %118, ptr %35, ptr %36, ptr %38, ptr %37, ptr %39)
  ret i1 true
}