; Function Attrs: mustprogress nounwind uwtable
define noundef zeroext i1 @_ZN10OpenSubdiv6v3_6_03Osd12OmpEvaluator11EvalPatchesEPKfRKNS1_16BufferDescriptorEPfS7_S8_S7_S8_S7_S8_S7_S8_S7_S8_S7_iPKNS1_10PatchCoordEPKNS1_10PatchArrayEPKiPKNS1_10PatchParamE(ptr noundef %0, ptr nocapture noundef nonnull readonly align 4 dereferenceable(12) %1, ptr noundef %2, ptr noundef nonnull align 4 dereferenceable(12) %3, ptr noundef %4, ptr noundef nonnull align 4 dereferenceable(12) %5, ptr noundef %6, ptr noundef nonnull align 4 dereferenceable(12) %7, ptr noundef %8, ptr noundef nonnull align 4 dereferenceable(12) %9, ptr noundef %10, ptr noundef nonnull align 4 dereferenceable(12) %11, ptr noundef %12, ptr noundef nonnull align 4 dereferenceable(12) %13, i32 noundef %14, ptr noundef %15, ptr noundef %16, ptr noundef %17, ptr noundef %18) local_unnamed_addr #4 align 2 {
  %20 = alloca ptr, align 8
  %21 = alloca ptr, align 8
  %22 = alloca ptr, align 8
  %23 = alloca ptr, align 8
  %24 = alloca ptr, align 8
  %25 = alloca ptr, align 8
  %26 = alloca i32, align 4
  %27 = alloca ptr, align 8
  %28 = alloca ptr, align 8
  %29 = alloca ptr, align 8
  %30 = alloca ptr, align 8
  %31 = alloca %"struct.OpenSubdiv::v3_6_0::Osd::BufferAdapter", align 8
  store ptr %2, ptr %20, align 8
  store ptr %4, ptr %21, align 8
  store ptr %6, ptr %22, align 8
  store ptr %8, ptr %23, align 8
  store ptr %10, ptr %24, align 8
  store ptr %12, ptr %25, align 8
  store i32 %14, ptr %26, align 4
  store ptr %15, ptr %27, align 8
  store ptr %16, ptr %28, align 8
  store ptr %17, ptr %29, align 8
  store ptr %18, ptr %30, align 8
  %32 = load i32, ptr %1, align 4
  %.not = icmp eq ptr %2, null
  br i1 %.not, label %37, label %33

33:                                               ; preds = %19
  %34 = load i32, ptr %3, align 4
  %35 = sext i32 %34 to i64
  %36 = getelementptr inbounds float, ptr %2, i64 %35
  store ptr %36, ptr %20, align 8
  br label %37

37:                                               ; preds = %33, %19
  %.not22 = icmp eq ptr %4, null
  br i1 %.not22, label %42, label %38

38:                                               ; preds = %37
  %39 = load i32, ptr %5, align 4
  %40 = sext i32 %39 to i64
  %41 = getelementptr inbounds float, ptr %4, i64 %40
  store ptr %41, ptr %21, align 8
  br label %42

42:                                               ; preds = %38, %37
  %.not23 = icmp eq ptr %6, null
  br i1 %.not23, label %47, label %43

43:                                               ; preds = %42
  %44 = load i32, ptr %7, align 4
  %45 = sext i32 %44 to i64
  %46 = getelementptr inbounds float, ptr %6, i64 %45
  store ptr %46, ptr %22, align 8
  br label %47

47:                                               ; preds = %43, %42
  %.not24 = icmp eq ptr %8, null
  br i1 %.not24, label %52, label %48

48:                                               ; preds = %47
  %49 = load i32, ptr %9, align 4
  %50 = sext i32 %49 to i64
  %51 = getelementptr inbounds float, ptr %8, i64 %50
  store ptr %51, ptr %23, align 8
  br label %52

52:                                               ; preds = %48, %47
  %.not25 = icmp eq ptr %10, null
  br i1 %.not25, label %57, label %53

53:                                               ; preds = %52
  %54 = load i32, ptr %11, align 4
  %55 = sext i32 %54 to i64
  %56 = getelementptr inbounds float, ptr %10, i64 %55
  store ptr %56, ptr %24, align 8
  br label %57

57:                                               ; preds = %53, %52
  %.not26 = icmp eq ptr %12, null
  br i1 %.not26, label %62, label %58

58:                                               ; preds = %57
  %59 = load i32, ptr %13, align 4
  %60 = sext i32 %59 to i64
  %61 = getelementptr inbounds float, ptr %12, i64 %60
  store ptr %61, ptr %25, align 8
  br label %62

62:                                               ; preds = %58, %57
  %63 = sext i32 %32 to i64
  %64 = getelementptr inbounds float, ptr %0, i64 %63
  %65 = getelementptr inbounds nuw i8, ptr %1, i64 4
  %66 = load i32, ptr %65, align 4
  %67 = getelementptr inbounds nuw i8, ptr %1, i64 8
  %68 = load i32, ptr %67, align 4
  store ptr %64, ptr %31, align 8
  %69 = getelementptr inbounds nuw i8, ptr %31, i64 8
  store i32 %66, ptr %69, align 8
  %70 = getelementptr inbounds nuw i8, ptr %31, i64 12
  store i32 %68, ptr %70, align 4
  call void (ptr, i32, ptr, ...) @__kmpc_fork_call(ptr nonnull @2, i32 18, ptr nonnull @_ZN10OpenSubdiv6v3_6_03Osd12OmpEvaluator11EvalPatchesEPKfRKNS1_16BufferDescriptorEPfS7_S8_S7_S8_S7_S8_S7_S8_S7_S8_S7_iPKNS1_10PatchCoordEPKNS1_10PatchArrayEPKiPKNS1_10PatchParamE.omp_outlined, ptr nonnull %26, ptr nonnull %20, ptr nonnull %3, ptr nonnull %21, ptr nonnull %5, ptr nonnull %22, ptr nonnull %7, ptr nonnull %23, ptr nonnull %9, ptr nonnull %24, ptr nonnull %11, ptr nonnull %25, ptr nonnull %13, ptr nonnull %27, ptr nonnull %28, ptr nonnull %30, ptr nonnull %29, ptr nonnull %31)
  ret i1 true
}